; Function Attrs: mustprogress uwtable
define void @_ZN3net21QuicServerSessionBase10InitializeEv(ptr noundef nonnull align 8 dereferenceable(2169) %0) unnamed_addr #0 align 2 {
  %2 = getelementptr inbounds nuw i8, ptr %0, i64 2080
  %3 = getelementptr inbounds nuw i8, ptr %0, i64 2064
  %4 = load ptr, ptr %3, align 8, !tbaa !6
  %5 = getelementptr inbounds nuw i8, ptr %0, i64 2072
  %6 = load ptr, ptr %5, align 8, !tbaa !94
  %7 = load ptr, ptr %0, align 8, !tbaa !3
  %8 = getelementptr inbounds nuw i8, ptr %7, i64 424
  %9 = load ptr, ptr %8, align 8
  %10 = tail call noundef ptr %9(ptr noundef nonnull align 8 dereferenceable(2169) %0, ptr noundef %4, ptr noundef %6)
  %11 = load ptr, ptr %2, align 8, !tbaa !102
  store ptr %10, ptr %2, align 8, !tbaa !102
  %.not.i.i = icmp eq ptr %11, null
  br i1 %.not.i.i, label %_ZNSt10unique_ptrIN3net26QuicCryptoServerStreamBaseESt14default_deleteIS1_EE5resetEPS1_.exit, label %_ZNKSt14default_deleteIN3net26QuicCryptoServerStreamBaseEEclEPS1_.exit.i.i

_ZNKSt14default_deleteIN3net26QuicCryptoServerStreamBaseEEclEPS1_.exit.i.i: ; preds = %1
  %12 = load ptr, ptr %11, align 8, !tbaa !3
  %13 = getelementptr inbounds nuw i8, ptr %12, i64 8
  %14 = load ptr, ptr %13, align 8
  tail call void %14(ptr noundef nonnull align 8 dereferenceable(1048) %11) #18
  br label %_ZNSt10unique_ptrIN3net26QuicCryptoServerStreamBaseESt14default_deleteIS1_EE5resetEPS1_.exit

_ZNSt10unique_ptrIN3net26QuicCryptoServerStreamBaseESt14default_deleteIS1_EE5resetEPS1_.exit: ; preds = %1, %_ZNKSt14default_deleteIN3net26QuicCryptoServerStreamBaseEEclEPS1_.exit.i.i
  tail call void @_ZN3net15QuicSpdySession10InitializeEv(ptr noundef nonnull align 8 dereferenceable(2057) %0)
  ret void
}